; Function Attrs: mustprogress nofree norecurse nosync nounwind willreturn memory(write, argmem: readwrite, inaccessiblemem: none) uwtable
define noundef zeroext i1 @_ZN8QuantLib16MultiStepNothing12nextTimeStepERKNS_10CurveStateERSt6vectorImSaImEERS4_IS4_INS_23MarketModelMultiProduct8CashFlowESaIS9_EESaISB_EE(ptr nocapture noundef nonnull align 8 dereferenceable(184) %this, ptr nocapture nonnull readnone align 1 %0, ptr nocapture noundef nonnull readonly align 8 dereferenceable(24) %numberCashFlowsThisStep, ptr nocapture nonnull readnone align 1 %1) unnamed_addr #4 align 2 {
entry:
  %2 = load ptr, ptr %numberCashFlowsThisStep, align 8, !tbaa !3
  %_M_finish.i = getelementptr inbounds nuw i8, ptr %numberCashFlowsThisStep, i64 8
  %3 = load ptr, ptr %_M_finish.i, align 8, !tbaa !3
  %cmp.not3.i.i.i.i = icmp eq ptr %2, %3
  br i1 %cmp.not3.i.i.i.i, label %_ZSt4fillIN9__gnu_cxx17__normal_iteratorIPmSt6vectorImSaImEEEEiEvT_S7_RKT0_.exit, label %for.body.i.i.i.i.preheader

for.body.i.i.i.i.preheader:                       ; preds = %entry
  %4 = ptrtoint ptr %3 to i64
  %5 = ptrtoint ptr %2 to i64
  %6 = add i64 %4, -8
  %7 = sub i64 %6, %5
  %8 = and i64 %7, -8
  %9 = add i64 %8, 8
  tail call void @llvm.memset.p0.i64(ptr align 8 %2, i8 0, i64 %9, i1 false), !tbaa !32
  br label %_ZSt4fillIN9__gnu_cxx17__normal_iteratorIPmSt6vectorImSaImEEEEiEvT_S7_RKT0_.exit

_ZSt4fillIN9__gnu_cxx17__normal_iteratorIPmSt6vectorImSaImEEEEiEvT_S7_RKT0_.exit: ; preds = %for.body.i.i.i.i.preheader, %entry
  %currentIndex_ = getelementptr inbounds nuw i8, ptr %this, i64 176
  %10 = load i64, ptr %currentIndex_, align 8, !tbaa !33
  %inc = add i64 %10, 1
  store i64 %inc, ptr %currentIndex_, align 8, !tbaa !33
  %doneIndex_ = getelementptr inbounds nuw i8, ptr %this, i64 168
  %11 = load i64, ptr %doneIndex_, align 8, !tbaa !31
  %cmp = icmp uge i64 %inc, %11
  ret i1 %cmp
}